; Function Attrs: mustprogress uwtable
define void @_ZNK2cv4UMat1tEv(ptr dead_on_unwind noalias writable sret(%"class.cv::UMat") align 8 %0, ptr noundef nonnull align 8 dereferenceable(80) %1) local_unnamed_addr #4 align 2 personality ptr @__gxx_personality_v0 {
  %3 = alloca %"class.cv::_InputArray", align 8
  %4 = alloca %"class.cv::_OutputArray", align 8
  tail call void @_ZN2cv4UMatC1ENS_14UMatUsageFlagsE(ptr noundef nonnull align 8 dereferenceable(80) %0, i32 noundef 0) #25
  call void @llvm.lifetime.start.p0(i64 24, ptr nonnull %3) #25
  %5 = getelementptr inbounds nuw i8, ptr %3, i64 16
  store i32 0, ptr %5, align 8, !tbaa !87
  %6 = getelementptr inbounds nuw i8, ptr %3, i64 20
  store i32 0, ptr %6, align 4, !tbaa !88
  store i32 17432576, ptr %3, align 8, !tbaa !53
  %7 = getelementptr inbounds nuw i8, ptr %3, i64 8
  store ptr %1, ptr %7, align 8, !tbaa !56
  call void @llvm.lifetime.start.p0(i64 24, ptr nonnull %4) #25
  %8 = getelementptr inbounds nuw i8, ptr %4, i64 8
  %9 = getelementptr inbounds nuw i8, ptr %4, i64 16
  store i64 0, ptr %9, align 8
  store i32 34209792, ptr %4, align 8, !tbaa !53
  store ptr %0, ptr %8, align 8, !tbaa !56
  invoke void @_ZN2cv9transposeERKNS_11_InputArrayERKNS_12_OutputArrayE(ptr noundef nonnull align 8 dereferenceable(24) %3, ptr noundef nonnull align 8 dereferenceable(24) %4)
          to label %10 unwind label %11

10:                                               ; preds = %2
  call void @llvm.lifetime.end.p0(i64 24, ptr nonnull %4) #25
  call void @llvm.lifetime.end.p0(i64 24, ptr nonnull %3) #25
  ret void

11:                                               ; preds = %2
  %12 = landingpad { ptr, i32 }
          cleanup
  call void @llvm.lifetime.end.p0(i64 24, ptr nonnull %4) #25
  call void @llvm.lifetime.end.p0(i64 24, ptr nonnull %3) #25
  call void @_ZN2cv4UMatD1Ev(ptr noundef nonnull align 8 dereferenceable(80) %0) #25
  resume { ptr, i32 } %12
}